target datalayout = "e-m:e-p270:32:32-p271:32:32-p272:64:64-i64:64-i128:128-f80:128-n8:16:32:64-S128"
target triple = "x86_64-pc-linux-gnu"

@H5PL_init_g = external global i8, align 1
@H5_libterm_g = external global i8, align 1
@H5PL_num_plugins_g = internal global i32 0, align 4
@H5PL_cache_capacity_g = internal global i32 0, align 4
@H5PL_cache_g = internal global ptr null, align 8
@.str = private unnamed_addr constant [110 x i8] c"generated/home/dtcxzyw/WorkSpace/Projects/compilers/llvm-opt-benchmark/bench/hdf5/hdf5/src/H5PLplugin_cache.c\00", align 1
@__func__.H5PL__create_plugin_cache = private unnamed_addr constant [26 x i8] c"H5PL__create_plugin_cache\00", align 1
@H5E_PLUGIN_g = external global i64, align 8
@H5E_CANTALLOC_g = external global i64, align 8
@.str.1 = private unnamed_addr constant [39 x i8] c"can't allocate memory for plugin cache\00", align 1

; Function Attrs: nounwind uwtable
define i32 @H5PL__create_plugin_cache() #0 {
  %1 = alloca i32, align 4
  %2 = alloca i8, align 1
  call void @llvm.lifetime.start.p0(i64 4, ptr %1) #9
  store i32 0, ptr %1, align 4, !tbaa !3
  call void @llvm.lifetime.start.p0(i64 1, ptr %2) #9
  store i8 0, ptr %2, align 1, !tbaa !7
  %3 = load i8, ptr @H5PL_init_g, align 1, !tbaa !7, !range !9, !noundef !10
  %4 = trunc i8 %3 to i1
  br i1 %4, label %9, label %5

5:                                                ; preds = %0
  %6 = load i8, ptr @H5_libterm_g, align 1, !tbaa !7, !range !9, !noundef !10
  %7 = trunc i8 %6 to i1
  %8 = xor i1 %7, true
  br label %9

9:                                                ; preds = %5, %0
  %10 = phi i1 [ true, %0 ], [ %8, %5 ]
  %11 = xor i1 %10, true
  %12 = xor i1 %11, true
  %13 = zext i1 %12 to i32
  %14 = sext i32 %13 to i64
  %15 = call i64 @llvm.expect.i64(i64 %14, i64 1)
  %16 = icmp ne i64 %15, 0
  br i1 %16, label %17, label %54

17:                                               ; preds = %9
  store i32 0, ptr @H5PL_num_plugins_g, align 4, !tbaa !3
  store i32 16, ptr @H5PL_cache_capacity_g, align 4, !tbaa !3
  %18 = load i32, ptr @H5PL_cache_capacity_g, align 4, !tbaa !3
  %19 = zext i32 %18 to i64
  %20 = mul i64 %19, 32
  %21 = call noalias ptr @calloc(i64 noundef 1, i64 noundef %20) #10
  store ptr %21, ptr @H5PL_cache_g, align 8, !tbaa !11
  %22 = icmp eq ptr null, %21
  br i1 %22, label %23, label %42

23:                                               ; preds = %17
  br label %24

24:                                               ; preds = %23
  br label %25

25:                                               ; preds = %24
  br label %26

26:                                               ; preds = %25
  %27 = load i64, ptr @H5E_PLUGIN_g, align 8, !tbaa !14
  %28 = load i64, ptr @H5E_CANTALLOC_g, align 8, !tbaa !14
  %29 = call i32 (ptr, ptr, i32, i64, i64, ptr, ...) @H5E_printf_stack(ptr noundef @.str, ptr noundef @__func__.H5PL__create_plugin_cache, i32 noundef 111, i64 noundef %27, i64 noundef %28, ptr noundef @.str.1)
  br label %30

30:                                               ; preds = %26
  br label %31

31:                                               ; preds = %30
  store i8 1, ptr %2, align 1, !tbaa !7
  %32 = load i8, ptr %2, align 1, !tbaa !7, !range !9, !noundef !10
  %33 = trunc i8 %32 to i1
  %34 = zext i1 %33 to i8
  store i8 %34, ptr %2, align 1, !tbaa !7
  br label %35

35:                                               ; preds = %31
  br label %36

36:                                               ; preds = %35
  br label %37

37:                                               ; preds = %36
  store i32 -1, ptr %1, align 4, !tbaa !3
  br label %43

38:                                               ; No predecessors!
  br label %39

39:                                               ; preds = %38
  br label %40

40:                                               ; preds = %39
  br label %41

41:                                               ; preds = %40
  br label %42

42:                                               ; preds = %41, %17
  br label %43

43:                                               ; preds = %42, %37
  %44 = load i32, ptr %1, align 4, !tbaa !3
  %45 = icmp eq i32 -1, %44
  br i1 %45, label %46, label %53

46:                                               ; preds = %43
  %47 = load ptr, ptr @H5PL_cache_g, align 8, !tbaa !11
  %48 = icmp ne ptr %47, null
  br i1 %48, label %49, label %52

49:                                               ; preds = %46
  %50 = load ptr, ptr @H5PL_cache_g, align 8, !tbaa !11
  %51 = call ptr @H5MM_xfree(ptr noundef %50)
  store ptr %51, ptr @H5PL_cache_g, align 8, !tbaa !11
  br label %52

52:                                               ; preds = %49, %46
  store i32 0, ptr @H5PL_cache_capacity_g, align 4, !tbaa !3
  br label %53

53:                                               ; preds = %52, %43
  br label %54

54:                                               ; preds = %53, %9
  %55 = load i32, ptr %1, align 4, !tbaa !3
  call void @llvm.lifetime.end.p0(i64 1, ptr %2) #9
  call void @llvm.lifetime.end.p0(i64 4, ptr %1) #9
  ret i32 %55
}