; Function Attrs: nounwind uwtable
define range(i32 -1, 1) i32 @H5PL__create_plugin_cache() local_unnamed_addr #0 {
  %1 = load i8, ptr @H5PL_init_g, align 1, !tbaa !3, !range !7, !noundef !8
  %2 = trunc nuw i8 %1 to i1
  %3 = load i8, ptr @H5_libterm_g, align 1, !range !7
  %4 = trunc nuw i8 %3 to i1
  %5 = xor i1 %4, true
  %6 = select i1 %2, i1 true, i1 %5
  br i1 %6, label %7, label %.critedge, !prof !9

7:                                                ; preds = %0
  store i32 0, ptr @H5PL_num_plugins_g, align 4, !tbaa !10
  store i32 16, ptr @H5PL_cache_capacity_g, align 4, !tbaa !10
  %8 = tail call noalias dereferenceable_or_null(512) ptr @calloc(i64 noundef 1, i64 noundef 512) #7
  store ptr %8, ptr @H5PL_cache_g, align 8, !tbaa !12
  %9 = icmp eq ptr %8, null
  br i1 %9, label %10, label %.critedge

10:                                               ; preds = %7
  %11 = load i64, ptr @H5E_PLUGIN_g, align 8, !tbaa !15
  %12 = load i64, ptr @H5E_CANTALLOC_g, align 8, !tbaa !15
  %13 = tail call i32 (ptr, ptr, i32, i64, i64, ptr, ...) @H5E_printf_stack(ptr noundef nonnull @.str, ptr noundef nonnull @__func__.H5PL__create_plugin_cache, i32 noundef 111, i64 noundef %11, i64 noundef %12, ptr noundef nonnull @.str.1) #8
  %14 = load ptr, ptr @H5PL_cache_g, align 8, !tbaa !12
  %.not = icmp eq ptr %14, null
  br i1 %.not, label %17, label %15

15:                                               ; preds = %10
  %16 = tail call ptr @H5MM_xfree(ptr noundef nonnull %14) #8
  store ptr %16, ptr @H5PL_cache_g, align 8, !tbaa !12
  br label %17

17:                                               ; preds = %15, %10
  store i32 0, ptr @H5PL_cache_capacity_g, align 4, !tbaa !10
  br label %.critedge

.critedge:                                        ; preds = %7, %17, %0
  %.0 = phi i32 [ -1, %17 ], [ 0, %0 ], [ 0, %7 ]
  ret i32 %.0
}